target datalayout = "e-m:e-p270:32:32-p271:32:32-p272:64:64-i64:64-i128:128-f80:128-n8:16:32:64-S128"
target triple = "x86_64-pc-linux-gnu"

%"class.Ipopt::ReferencedObject.base" = type <{ ptr, i32 }>
%"class.std::__cxx11::basic_string" = type { %"struct.std::__cxx11::basic_string<char>::_Alloc_hider", i64, %union.anon }
%"struct.std::__cxx11::basic_string<char>::_Alloc_hider" = type { ptr }
%union.anon = type { i64, [8 x i8] }
%"class.Ipopt::Journal" = type { %"class.Ipopt::ReferencedObject.base", %"class.std::__cxx11::basic_string", [32 x i32] }
%"class.Ipopt::StreamJournal" = type { %"class.Ipopt::Journal", ptr, [32768 x i8] }

; Function Attrs: mustprogress uwtable
define void @_ZN5Ipopt13StreamJournal10PrintfImplENS_16EJournalCategoryENS_13EJournalLevelEPKcP13__va_list_tag(ptr noundef nonnull align 8 dereferenceable(32952) %0, i32 noundef %1, i32 noundef %2, ptr noundef %3, ptr noundef %4) unnamed_addr #0 align 2 {
  %6 = alloca ptr, align 8
  %7 = alloca i32, align 4
  %8 = alloca i32, align 4
  %9 = alloca ptr, align 8
  %10 = alloca ptr, align 8
  store ptr %0, ptr %6, align 8
  store i32 %1, ptr %7, align 4
  store i32 %2, ptr %8, align 4
  store ptr %3, ptr %9, align 8
  store ptr %4, ptr %10, align 8
  %11 = load ptr, ptr %6, align 8
  %12 = getelementptr inbounds %"class.Ipopt::StreamJournal", ptr %11, i32 0, i32 1
  %13 = load ptr, ptr %12, align 8
  %14 = icmp ne ptr %13, null
  br i1 %14, label %15, label %26

15:                                               ; preds = %5
  %16 = getelementptr inbounds %"class.Ipopt::StreamJournal", ptr %11, i32 0, i32 2
  %17 = getelementptr inbounds [32768 x i8], ptr %16, i64 0, i64 0
  %18 = load ptr, ptr %9, align 8
  %19 = load ptr, ptr %10, align 8
  %20 = call i32 @vsprintf(ptr noundef %17, ptr noundef %18, ptr noundef %19) #11
  %21 = getelementptr inbounds %"class.Ipopt::StreamJournal", ptr %11, i32 0, i32 1
  %22 = load ptr, ptr %21, align 8
  %23 = getelementptr inbounds %"class.Ipopt::StreamJournal", ptr %11, i32 0, i32 2
  %24 = getelementptr inbounds [32768 x i8], ptr %23, i64 0, i64 0
  %25 = call noundef nonnull align 8 dereferenceable(8) ptr @_ZStlsISt11char_traitsIcEERSt13basic_ostreamIcT_ES5_PKc(ptr noundef nonnull align 8 dereferenceable(8) %22, ptr noundef %24)
  br label %26

26:                                               ; preds = %15, %5
  ret void
}