; Function Attrs: mustprogress uwtable
define void @_ZN5Ipopt13StreamJournal10PrintfImplENS_16EJournalCategoryENS_13EJournalLevelEPKcP13__va_list_tag(ptr noundef nonnull align 8 dereferenceable(32952) %0, i32 %1, i32 %2, ptr nocapture noundef readonly %3, ptr noundef %4) unnamed_addr #3 align 2 {
  %6 = getelementptr inbounds i8, ptr %0, i64 176
  %7 = load ptr, ptr %6, align 8
  %.not = icmp eq ptr %7, null
  br i1 %.not, label %13, label %8

8:                                                ; preds = %5
  %9 = getelementptr inbounds i8, ptr %0, i64 184
  %10 = tail call i32 @vsprintf(ptr noundef nonnull %9, ptr noundef %3, ptr noundef %4) #20
  %11 = load ptr, ptr %6, align 8
  %12 = tail call noundef nonnull align 8 dereferenceable(8) ptr @_ZStlsISt11char_traitsIcEERSt13basic_ostreamIcT_ES5_PKc(ptr noundef nonnull align 8 dereferenceable(8) %11, ptr noundef nonnull %9)
  br label %13

13:                                               ; preds = %8, %5
  ret void
}